target datalayout = "e-m:e-p270:32:32-p271:32:32-p272:64:64-i64:64-i128:128-f80:128-n8:16:32:64-S128"
target triple = "x86_64-pc-linux-gnu"

; Function Attrs: nounwind uwtable
define hidden i64 @luaO_applyparam(i8 noundef zeroext %0, i64 noundef %1) #0 {
  %3 = alloca i64, align 8
  %4 = alloca i8, align 1
  %5 = alloca i64, align 8
  %6 = alloca i32, align 4
  %7 = alloca i32, align 4
  %8 = alloca i32, align 4
  store i8 %0, ptr %4, align 1, !tbaa !8
  store i64 %1, ptr %5, align 8, !tbaa !9
  call void @llvm.lifetime.start.p0(i64 4, ptr %6) #10
  %9 = load i8, ptr %4, align 1, !tbaa !8
  %10 = zext i8 %9 to i32
  %11 = and i32 %10, 15
  store i32 %11, ptr %6, align 4, !tbaa !4
  call void @llvm.lifetime.start.p0(i64 4, ptr %7) #10
  %12 = load i8, ptr %4, align 1, !tbaa !8
  %13 = zext i8 %12 to i32
  %14 = ashr i32 %13, 4
  store i32 %14, ptr %7, align 4, !tbaa !4
  %15 = load i32, ptr %7, align 4, !tbaa !4
  %16 = icmp sgt i32 %15, 0
  br i1 %16, label %17, label %22

17:                                               ; preds = %2
  %18 = load i32, ptr %7, align 4, !tbaa !4
  %19 = add nsw i32 %18, -1
  store i32 %19, ptr %7, align 4, !tbaa !4
  %20 = load i32, ptr %6, align 4, !tbaa !4
  %21 = add i32 %20, 16
  store i32 %21, ptr %6, align 4, !tbaa !4
  br label %22

22:                                               ; preds = %17, %2
  %23 = load i32, ptr %7, align 4, !tbaa !4
  %24 = sub nsw i32 %23, 7
  store i32 %24, ptr %7, align 4, !tbaa !4
  %25 = load i32, ptr %7, align 4, !tbaa !4
  %26 = icmp sge i32 %25, 0
  br i1 %26, label %27, label %42

27:                                               ; preds = %22
  %28 = load i64, ptr %5, align 8, !tbaa !9
  %29 = load i32, ptr %7, align 4, !tbaa !4
  %30 = zext i32 %29 to i64
  %31 = ashr i64 297528130221121800, %30
  %32 = icmp slt i64 %28, %31
  br i1 %32, label %33, label %41

33:                                               ; preds = %27
  %34 = load i64, ptr %5, align 8, !tbaa !9
  %35 = load i32, ptr %6, align 4, !tbaa !4
  %36 = zext i32 %35 to i64
  %37 = mul nsw i64 %34, %36
  %38 = load i32, ptr %7, align 4, !tbaa !4
  %39 = zext i32 %38 to i64
  %40 = shl i64 %37, %39
  store i64 %40, ptr %3, align 8
  store i32 1, ptr %8, align 4
  br label %70

41:                                               ; preds = %27
  store i64 9223372036854775807, ptr %3, align 8
  store i32 1, ptr %8, align 4
  br label %70

42:                                               ; preds = %22
  %43 = load i32, ptr %7, align 4, !tbaa !4
  %44 = sub nsw i32 0, %43
  store i32 %44, ptr %7, align 4, !tbaa !4
  %45 = load i64, ptr %5, align 8, !tbaa !9
  %46 = icmp slt i64 %45, 297528130221121800
  br i1 %46, label %47, label %55

47:                                               ; preds = %42
  %48 = load i64, ptr %5, align 8, !tbaa !9
  %49 = load i32, ptr %6, align 4, !tbaa !4
  %50 = zext i32 %49 to i64
  %51 = mul nsw i64 %48, %50
  %52 = load i32, ptr %7, align 4, !tbaa !4
  %53 = zext i32 %52 to i64
  %54 = ashr i64 %51, %53
  store i64 %54, ptr %3, align 8
  store i32 1, ptr %8, align 4
  br label %70

55:                                               ; preds = %42
  %56 = load i64, ptr %5, align 8, !tbaa !9
  %57 = load i32, ptr %7, align 4, !tbaa !4
  %58 = zext i32 %57 to i64
  %59 = ashr i64 %56, %58
  %60 = icmp slt i64 %59, 297528130221121800
  br i1 %60, label %61, label %69

61:                                               ; preds = %55
  %62 = load i64, ptr %5, align 8, !tbaa !9
  %63 = load i32, ptr %7, align 4, !tbaa !4
  %64 = zext i32 %63 to i64
  %65 = ashr i64 %62, %64
  %66 = load i32, ptr %6, align 4, !tbaa !4
  %67 = zext i32 %66 to i64
  %68 = mul nsw i64 %65, %67
  store i64 %68, ptr %3, align 8
  store i32 1, ptr %8, align 4
  br label %70

69:                                               ; preds = %55
  store i64 9223372036854775807, ptr %3, align 8
  store i32 1, ptr %8, align 4
  br label %70

70:                                               ; preds = %69, %61, %47, %41, %33
  call void @llvm.lifetime.end.p0(i64 4, ptr %7) #10
  call void @llvm.lifetime.end.p0(i64 4, ptr %6) #10
  %71 = load i64, ptr %3, align 8
  ret i64 %71
}